target datalayout = "e-m:e-p270:32:32-p271:32:32-p272:64:64-i64:64-i128:128-f80:128-n8:16:32:64-S128"
target triple = "x86_64-unknown-linux-gnu"

%"struct.google::protobuf::compiler::cpp::EnumGenerator::ValueLimits" = type { ptr, ptr }
%"class.absl::lts_20230802::log_internal::NullStream" = type { i8 }
%"class.google::protobuf::EnumDescriptor" = type { %"class.google::protobuf::internal::SymbolBase", i8, i16, i32, ptr, ptr, ptr, ptr, ptr, ptr, ptr, i32, i32, ptr, ptr }
%"class.google::protobuf::internal::SymbolBase" = type { i8 }
%"class.google::protobuf::EnumValueDescriptor" = type { %"class.google::protobuf::internal::SymbolBaseN", %"class.google::protobuf::internal::SymbolBaseN.0", i32, ptr, ptr, ptr, ptr, ptr }
%"class.google::protobuf::internal::SymbolBaseN" = type { %"class.google::protobuf::internal::SymbolBase" }
%"class.google::protobuf::internal::SymbolBaseN.0" = type { %"class.google::protobuf::internal::SymbolBase" }

; Function Attrs: mustprogress nounwind uwtable
define linkonce_odr hidden noundef nonnull align 1 dereferenceable(1) ptr @_ZN4absl12lts_2023080212log_internal10NullStream14InternalStreamEv(ptr noundef nonnull align 1 dereferenceable(1) %this) #5 comdat align 2 {
entry:
  %this.addr = alloca ptr, align 8
  store ptr %this, ptr %this.addr, align 8
  %this1 = load ptr, ptr %this.addr, align 8
  ret ptr %this1
}

; Function Attrs: mustprogress nounwind uwtable
define linkonce_odr hidden noundef i32 @_ZNK6google8protobuf19EnumValueDescriptor6numberEv(ptr noundef nonnull align 8 dereferenceable(48) %this) #5 comdat align 2 {
entry:
  %this.addr = alloca ptr, align 8
  store ptr %this, ptr %this.addr, align 8
  %this1 = load ptr, ptr %this.addr, align 8
  %number_ = getelementptr inbounds %"class.google::protobuf::EnumValueDescriptor", ptr %this1, i32 0, i32 2
  %0 = load i32, ptr %number_, align 4
  ret i32 %0
}

; Function Attrs: mustprogress nounwind uwtable
define linkonce_odr hidden noundef i32 @_ZNK6google8protobuf14EnumDescriptor11value_countEv(ptr noundef nonnull align 8 dereferenceable(88) %this) #5 comdat align 2 {
entry:
  %this.addr = alloca ptr, align 8
  store ptr %this, ptr %this.addr, align 8
  %this1 = load ptr, ptr %this.addr, align 8
  %value_count_ = getelementptr inbounds %"class.google::protobuf::EnumDescriptor", ptr %this1, i32 0, i32 3
  %0 = load i32, ptr %value_count_, align 4
  ret i32 %0
}

; Function Attrs: mustprogress uwtable
define linkonce_odr hidden noundef ptr @_ZNK6google8protobuf14EnumDescriptor5valueEi(ptr noundef nonnull align 8 dereferenceable(88) %this, i32 noundef %index) #4 comdat align 2 {
entry:
  %this.addr = alloca ptr, align 8
  %index.addr = alloca i32, align 4
  %ref.tmp = alloca %"class.absl::lts_20230802::log_internal::NullStream", align 1
  %ref.tmp4 = alloca %"class.absl::lts_20230802::log_internal::NullStream", align 1
  store ptr %this, ptr %this.addr, align 8
  store i32 %index, ptr %index.addr, align 4
  %this1 = load ptr, ptr %this.addr, align 8
  br label %while.cond

while.cond:                                       ; preds = %while.body, %entry
  br i1 false, label %while.body, label %while.end

while.body:                                       ; preds = %while.cond
  %call = call noundef nonnull align 1 dereferenceable(1) ptr @_ZN4absl12lts_2023080212log_internal10NullStream14InternalStreamEv(ptr noundef nonnull align 1 dereferenceable(1) %ref.tmp)
  br label %while.cond, !llvm.loop !6

while.end:                                        ; preds = %while.cond
  br label %while.cond2

while.cond2:                                      ; preds = %while.body3, %while.end
  br i1 false, label %while.body3, label %while.end6

while.body3:                                      ; preds = %while.cond2
  %call5 = call noundef nonnull align 1 dereferenceable(1) ptr @_ZN4absl12lts_2023080212log_internal10NullStream14InternalStreamEv(ptr noundef nonnull align 1 dereferenceable(1) %ref.tmp4)
  br label %while.cond2, !llvm.loop !7

while.end6:                                       ; preds = %while.cond2
  %values_ = getelementptr inbounds %"class.google::protobuf::EnumDescriptor", ptr %this1, i32 0, i32 10
  %0 = load ptr, ptr %values_, align 8
  %1 = load i32, ptr %index.addr, align 4
  %idx.ext = sext i32 %1 to i64
  %add.ptr = getelementptr inbounds %"class.google::protobuf::EnumValueDescriptor", ptr %0, i64 %idx.ext
  ret ptr %add.ptr
}

; Function Attrs: mustprogress uwtable
define hidden { ptr, ptr } @_ZN6google8protobuf8compiler3cpp13EnumGenerator11ValueLimits8FromEnumEPKNS0_14EnumDescriptorE(ptr noundef %descriptor) #4 align 2 {
entry:
  %retval = alloca %"struct.google::protobuf::compiler::cpp::EnumGenerator::ValueLimits", align 8
  %descriptor.addr = alloca ptr, align 8
  %min_desc = alloca ptr, align 8
  %max_desc = alloca ptr, align 8
  %i = alloca i32, align 4
  store ptr %descriptor, ptr %descriptor.addr, align 8
  %0 = load ptr, ptr %descriptor.addr, align 8
  %call = call noundef ptr @_ZNK6google8protobuf14EnumDescriptor5valueEi(ptr noundef nonnull align 8 dereferenceable(88) %0, i32 noundef 0)
  store ptr %call, ptr %min_desc, align 8
  %1 = load ptr, ptr %descriptor.addr, align 8
  %call1 = call noundef ptr @_ZNK6google8protobuf14EnumDescriptor5valueEi(ptr noundef nonnull align 8 dereferenceable(88) %1, i32 noundef 0)
  store ptr %call1, ptr %max_desc, align 8
  store i32 1, ptr %i, align 4
  br label %for.cond

for.cond:                                         ; preds = %for.inc, %entry
  %2 = load i32, ptr %i, align 4
  %3 = load ptr, ptr %descriptor.addr, align 8
  %call2 = call noundef i32 @_ZNK6google8protobuf14EnumDescriptor11value_countEv(ptr noundef nonnull align 8 dereferenceable(88) %3)
  %cmp = icmp slt i32 %2, %call2
  br i1 %cmp, label %for.body, label %for.end

for.body:                                         ; preds = %for.cond
  %4 = load ptr, ptr %descriptor.addr, align 8
  %5 = load i32, ptr %i, align 4
  %call3 = call noundef ptr @_ZNK6google8protobuf14EnumDescriptor5valueEi(ptr noundef nonnull align 8 dereferenceable(88) %4, i32 noundef %5)
  %call4 = call noundef i32 @_ZNK6google8protobuf19EnumValueDescriptor6numberEv(ptr noundef nonnull align 8 dereferenceable(48) %call3)
  %6 = load ptr, ptr %min_desc, align 8
  %call5 = call noundef i32 @_ZNK6google8protobuf19EnumValueDescriptor6numberEv(ptr noundef nonnull align 8 dereferenceable(48) %6)
  %cmp6 = icmp slt i32 %call4, %call5
  br i1 %cmp6, label %if.then, label %if.end

if.then:                                          ; preds = %for.body
  %7 = load ptr, ptr %descriptor.addr, align 8
  %8 = load i32, ptr %i, align 4
  %call7 = call noundef ptr @_ZNK6google8protobuf14EnumDescriptor5valueEi(ptr noundef nonnull align 8 dereferenceable(88) %7, i32 noundef %8)
  store ptr %call7, ptr %min_desc, align 8
  br label %if.end

if.end:                                           ; preds = %if.then, %for.body
  %9 = load ptr, ptr %descriptor.addr, align 8
  %10 = load i32, ptr %i, align 4
  %call8 = call noundef ptr @_ZNK6google8protobuf14EnumDescriptor5valueEi(ptr noundef nonnull align 8 dereferenceable(88) %9, i32 noundef %10)
  %call9 = call noundef i32 @_ZNK6google8protobuf19EnumValueDescriptor6numberEv(ptr noundef nonnull align 8 dereferenceable(48) %call8)
  %11 = load ptr, ptr %max_desc, align 8
  %call10 = call noundef i32 @_ZNK6google8protobuf19EnumValueDescriptor6numberEv(ptr noundef nonnull align 8 dereferenceable(48) %11)
  %cmp11 = icmp sgt i32 %call9, %call10
  br i1 %cmp11, label %if.then12, label %if.end14

if.then12:                                        ; preds = %if.end
  %12 = load ptr, ptr %descriptor.addr, align 8
  %13 = load i32, ptr %i, align 4
  %call13 = call noundef ptr @_ZNK6google8protobuf14EnumDescriptor5valueEi(ptr noundef nonnull align 8 dereferenceable(88) %12, i32 noundef %13)
  store ptr %call13, ptr %max_desc, align 8
  br label %if.end14

if.end14:                                         ; preds = %if.then12, %if.end
  br label %for.inc

for.inc:                                          ; preds = %if.end14
  %14 = load i32, ptr %i, align 4
  %inc = add nsw i32 %14, 1
  store i32 %inc, ptr %i, align 4
  br label %for.cond, !llvm.loop !4

for.end:                                          ; preds = %for.cond
  %min = getelementptr inbounds %"struct.google::protobuf::compiler::cpp::EnumGenerator::ValueLimits", ptr %retval, i32 0, i32 0
  %15 = load ptr, ptr %min_desc, align 8
  store ptr %15, ptr %min, align 8
  %max = getelementptr inbounds %"struct.google::protobuf::compiler::cpp::EnumGenerator::ValueLimits", ptr %retval, i32 0, i32 1
  %16 = load ptr, ptr %max_desc, align 8
  store ptr %16, ptr %max, align 8
  %17 = load { ptr, ptr }, ptr %retval, align 8
  ret { ptr, ptr } %17
}