; Function Attrs: mustprogress nofree norecurse nosync nounwind willreturn memory(read, inaccessiblemem: none) uwtable
define hidden { ptr, ptr } @_ZN6google8protobuf8compiler3cpp13EnumGenerator11ValueLimits8FromEnumEPKNS0_14EnumDescriptorE(ptr nocapture noundef readonly %descriptor) local_unnamed_addr #3 align 2 {
entry:
  %values_.i = getelementptr inbounds i8, ptr %descriptor, i64 56
  %0 = load ptr, ptr %values_.i, align 8
  %value_count_.i = getelementptr inbounds i8, ptr %descriptor, i64 4
  %1 = load i32, ptr %value_count_.i, align 4
  %cmp28 = icmp sgt i32 %1, 1
  br i1 %cmp28, label %for.body.preheader, label %for.end

for.body.preheader:                               ; preds = %entry
  %wide.trip.count = zext nneg i32 %1 to i64
  br label %for.body

for.body:                                         ; preds = %for.body.preheader, %for.body
  %indvars.iv = phi i64 [ 1, %for.body.preheader ], [ %indvars.iv.next, %for.body ]
  %max_desc.030 = phi ptr [ %0, %for.body.preheader ], [ %max_desc.1, %for.body ]
  %min_desc.029 = phi ptr [ %0, %for.body.preheader ], [ %spec.select, %for.body ]
  %add.ptr.i = getelementptr inbounds %"class.google::protobuf::EnumValueDescriptor", ptr %0, i64 %indvars.iv
  %number_.i = getelementptr inbounds i8, ptr %add.ptr.i, i64 4
  %2 = load i32, ptr %number_.i, align 4
  %number_.i16 = getelementptr inbounds i8, ptr %min_desc.029, i64 4
  %3 = load i32, ptr %number_.i16, align 4
  %cmp6 = icmp slt i32 %2, %3
  %spec.select = select i1 %cmp6, ptr %add.ptr.i, ptr %min_desc.029
  %number_.i24 = getelementptr inbounds i8, ptr %max_desc.030, i64 4
  %4 = load i32, ptr %number_.i24, align 4
  %cmp11 = icmp sgt i32 %2, %4
  %max_desc.1 = select i1 %cmp11, ptr %add.ptr.i, ptr %max_desc.030
  %indvars.iv.next = add nuw nsw i64 %indvars.iv, 1
  %exitcond.not = icmp eq i64 %indvars.iv.next, %wide.trip.count
  br i1 %exitcond.not, label %for.end, label %for.body, !llvm.loop !4

for.end:                                          ; preds = %for.body, %entry
  %min_desc.0.lcssa = phi ptr [ %0, %entry ], [ %spec.select, %for.body ]
  %max_desc.0.lcssa = phi ptr [ %0, %entry ], [ %max_desc.1, %for.body ]
  %.fca.0.insert = insertvalue { ptr, ptr } poison, ptr %min_desc.0.lcssa, 0
  %.fca.1.insert = insertvalue { ptr, ptr } %.fca.0.insert, ptr %max_desc.0.lcssa, 1
  ret { ptr, ptr } %.fca.1.insert
}